target datalayout = "e-m:e-p270:32:32-p271:32:32-p272:64:64-i64:64-i128:128-f80:128-n8:16:32:64-S128"
target triple = "x86_64-pc-linux-gnu"

%struct._Node = type { %union.anon.2 }
%union.anon.2 = type { %struct.BagNode }
%struct.BagNode = type { i32, i32, ptr, ptr, i32, %union.anon.4, i32, i32, i32, i32, i32 }
%union.anon.4 = type { %struct.anon.7 }
%struct.anon.7 = type { ptr, ptr }
%struct.anon.3 = type { i32, i32, ptr, ptr }
%struct.ConsAltNode = type { i32, i32, ptr, ptr, ptr }

; Function Attrs: nounwind uwtable
define internal i32 @is_invalid_quantifier_target(ptr noundef %0) #0 {
  %2 = alloca i32, align 4
  %3 = alloca ptr, align 8
  store ptr %0, ptr %3, align 8, !tbaa !111
  %4 = load ptr, ptr %3, align 8, !tbaa !111
  %5 = getelementptr inbounds nuw %struct._Node, ptr %4, i32 0, i32 0
  %6 = getelementptr inbounds nuw %struct.anon.3, ptr %5, i32 0, i32 0
  %7 = load i32, ptr %6, align 8, !tbaa !12
  switch i32 %7, label %43 [
    i32 6, label %8
    i32 10, label %8
    i32 5, label %44
    i32 7, label %9
    i32 8, label %26
  ]

8:                                                ; preds = %1, %1
  store i32 1, ptr %2, align 4
  br label %45

9:                                                ; preds = %1
  br label %10

10:                                               ; preds = %19, %9
  %11 = load ptr, ptr %3, align 8, !tbaa !111
  %12 = getelementptr inbounds nuw %struct._Node, ptr %11, i32 0, i32 0
  %13 = getelementptr inbounds nuw %struct.ConsAltNode, ptr %12, i32 0, i32 3
  %14 = load ptr, ptr %13, align 8, !tbaa !12
  %15 = call i32 @is_invalid_quantifier_target(ptr noundef %14)
  %16 = icmp ne i32 %15, 0
  br i1 %16, label %18, label %17

17:                                               ; preds = %10
  store i32 0, ptr %2, align 4
  br label %45

18:                                               ; preds = %10
  br label %19

19:                                               ; preds = %18
  %20 = load ptr, ptr %3, align 8, !tbaa !111
  %21 = getelementptr inbounds nuw %struct._Node, ptr %20, i32 0, i32 0
  %22 = getelementptr inbounds nuw %struct.ConsAltNode, ptr %21, i32 0, i32 4
  %23 = load ptr, ptr %22, align 8, !tbaa !12
  store ptr %23, ptr %3, align 8, !tbaa !111
  %24 = icmp ne ptr %23, null
  br i1 %24, label %10, label %25, !llvm.loop !254

25:                                               ; preds = %19
  store i32 0, ptr %2, align 4
  br label %45

26:                                               ; preds = %1
  br label %27

27:                                               ; preds = %36, %26
  %28 = load ptr, ptr %3, align 8, !tbaa !111
  %29 = getelementptr inbounds nuw %struct._Node, ptr %28, i32 0, i32 0
  %30 = getelementptr inbounds nuw %struct.ConsAltNode, ptr %29, i32 0, i32 3
  %31 = load ptr, ptr %30, align 8, !tbaa !12
  %32 = call i32 @is_invalid_quantifier_target(ptr noundef %31)
  %33 = icmp ne i32 %32, 0
  br i1 %33, label %34, label %35

34:                                               ; preds = %27
  store i32 1, ptr %2, align 4
  br label %45

35:                                               ; preds = %27
  br label %36

36:                                               ; preds = %35
  %37 = load ptr, ptr %3, align 8, !tbaa !111
  %38 = getelementptr inbounds nuw %struct._Node, ptr %37, i32 0, i32 0
  %39 = getelementptr inbounds nuw %struct.ConsAltNode, ptr %38, i32 0, i32 4
  %40 = load ptr, ptr %39, align 8, !tbaa !12
  store ptr %40, ptr %3, align 8, !tbaa !111
  %41 = icmp ne ptr %40, null
  br i1 %41, label %27, label %42, !llvm.loop !255

42:                                               ; preds = %36
  br label %44

43:                                               ; preds = %1
  br label %44

44:                                               ; preds = %43, %42, %1
  store i32 0, ptr %2, align 4
  br label %45

45:                                               ; preds = %44, %34, %25, %17, %8
  %46 = load i32, ptr %2, align 4
  ret i32 %46
}